target datalayout = "e-m:e-p270:32:32-p271:32:32-p272:64:64-i64:64-i128:128-f80:128-n8:16:32:64-S128"
target triple = "x86_64-pc-linux-gnu"

%"class.boost::urls::url_view_base" = type { [8 x i8], %"struct.boost::urls::detail::url_impl", ptr }
%"struct.boost::urls::detail::url_impl" = type <{ ptr, [8 x i64], [7 x i64], i64, i64, [16 x i8], i16, [2 x i8], i32, i16, i8, [5 x i8] }>
%"struct.boost::urls::encoding_opts" = type { i8, i8, i8 }
%"class.boost::urls::detail::query_ref" = type <{ ptr, ptr, i64, i64, i64, i8, [7 x i8] }>
%"class.boost::urls::params_ref" = type { %"class.boost::urls::params_base.base", ptr }
%"class.boost::urls::params_base.base" = type { %"class.boost::urls::detail::query_ref", %"struct.boost::urls::encoding_opts" }
%"class.std::initializer_list" = type { ptr, i64 }

; Function Attrs: inlinehint mustprogress nounwind uwtable
define linkonce_odr hidden void @_ZN5boost4urls10params_refC2ERNS0_8url_baseENS0_13encoding_optsE(ptr noundef nonnull align 8 dereferenceable(64) %0, ptr noundef nonnull align 8 dereferenceable(216) %1, i24 %2) unnamed_addr #1 comdat align 2 {
  %4 = alloca %"struct.boost::urls::encoding_opts", align 1
  %5 = alloca ptr, align 8
  %6 = alloca ptr, align 8
  %7 = alloca %"class.boost::urls::detail::query_ref", align 8
  %8 = alloca %"struct.boost::urls::encoding_opts", align 1
  %9 = alloca i24, align 4
  store i24 %2, ptr %4, align 1
  store ptr %0, ptr %5, align 8, !tbaa !7
  store ptr %1, ptr %6, align 8, !tbaa !7
  %10 = load ptr, ptr %5, align 8
  call void @llvm.lifetime.start.p0(i64 48, ptr %7) #9
  %11 = load ptr, ptr %6, align 8, !tbaa !7
  %12 = getelementptr inbounds i8, ptr %11, i64 8
  %13 = getelementptr inbounds nuw %"class.boost::urls::url_view_base", ptr %12, i32 0, i32 1
  call void @_ZN5boost4urls6detail9query_refC1ERKNS1_8url_implE(ptr noundef nonnull align 8 dereferenceable(41) %7, ptr noundef nonnull align 8 dereferenceable(171) %13) #9
  call void @llvm.memcpy.p0.p0.i64(ptr align 1 %8, ptr align 1 %4, i64 3, i1 false), !tbaa.struct !64
  call void @llvm.memcpy.p0.p0.i64(ptr align 4 %9, ptr align 1 %8, i64 3, i1 false)
  %14 = load i24, ptr %9, align 4
  call void @_ZN5boost4urls11params_baseC2ERKNS0_6detail9query_refENS0_13encoding_optsE(ptr noundef nonnull align 8 dereferenceable(51) %10, ptr noundef nonnull align 8 dereferenceable(41) %7, i24 %14) #9
  call void @llvm.lifetime.end.p0(i64 48, ptr %7) #9
  %15 = getelementptr inbounds nuw %"class.boost::urls::params_ref", ptr %10, i32 0, i32 1
  %16 = load ptr, ptr %6, align 8, !tbaa !7
  store ptr %16, ptr %15, align 8, !tbaa !103
  ret void
}

; Function Attrs: mustprogress nounwind uwtable
define void @_ZN5boost4urls8url_base6paramsENS0_13encoding_optsE(ptr dead_on_unwind noalias writable sret(%"class.boost::urls::params_ref") align 8 %0, ptr noundef nonnull align 8 dereferenceable(216) %1, i24 %2) #2 align 2 {
  %4 = alloca %"struct.boost::urls::encoding_opts", align 1
  %5 = alloca ptr, align 8
  %6 = alloca %"struct.boost::urls::encoding_opts", align 1
  %7 = alloca i24, align 4
  store i24 %2, ptr %4, align 1
  store ptr %1, ptr %5, align 8, !tbaa !7
  %8 = load ptr, ptr %5, align 8
  call void @llvm.memcpy.p0.p0.i64(ptr align 1 %6, ptr align 1 %4, i64 3, i1 false), !tbaa.struct !64
  call void @llvm.memcpy.p0.p0.i64(ptr align 4 %7, ptr align 1 %6, i64 3, i1 false)
  %9 = load i24, ptr %7, align 4
  call void @_ZN5boost4urls10params_refC2ERNS0_8url_baseENS0_13encoding_optsE(ptr noundef nonnull align 8 dereferenceable(64) %0, ptr noundef nonnull align 8 dereferenceable(216) %8, i24 %9) #9
  ret void
}

; Function Attrs: mustprogress nounwind uwtable
define noundef nonnull align 8 dereferenceable(216) ptr @_ZN5boost4urls8url_base10set_paramsESt16initializer_listINS0_10param_viewEENS0_13encoding_optsE(ptr noundef nonnull align 8 dereferenceable(216) %0, ptr %1, i64 %2, i24 %3) #2 align 2 personality ptr @__gxx_personality_v0 {
  %5 = alloca %"class.std::initializer_list", align 8
  %6 = alloca %"struct.boost::urls::encoding_opts", align 1
  %7 = alloca ptr, align 8
  %8 = alloca %"class.boost::urls::params_ref", align 8
  %9 = alloca %"struct.boost::urls::encoding_opts", align 1
  %10 = alloca i24, align 4
  %11 = alloca %"class.std::initializer_list", align 8
  %12 = getelementptr inbounds nuw { ptr, i64 }, ptr %5, i32 0, i32 0
  store ptr %1, ptr %12, align 8
  %13 = getelementptr inbounds nuw { ptr, i64 }, ptr %5, i32 0, i32 1
  store i64 %2, ptr %13, align 8
  store i24 %3, ptr %6, align 1
  store ptr %0, ptr %7, align 8, !tbaa !7
  %14 = load ptr, ptr %7, align 8
  call void @llvm.lifetime.start.p0(i64 64, ptr %8) #9
  call void @llvm.memcpy.p0.p0.i64(ptr align 1 %9, ptr align 1 %6, i64 3, i1 false), !tbaa.struct !64
  call void @llvm.memcpy.p0.p0.i64(ptr align 4 %10, ptr align 1 %9, i64 3, i1 false)
  %15 = load i24, ptr %10, align 4
  call void @_ZN5boost4urls8url_base6paramsENS0_13encoding_optsE(ptr dead_on_unwind writable sret(%"class.boost::urls::params_ref") align 8 %8, ptr noundef nonnull align 8 dereferenceable(216) %14, i24 %15) #9
  call void @llvm.memcpy.p0.p0.i64(ptr align 8 %11, ptr align 8 %5, i64 16, i1 false), !tbaa.struct !37
  %16 = getelementptr inbounds nuw { ptr, i64 }, ptr %11, i32 0, i32 0
  %17 = load ptr, ptr %16, align 8
  %18 = getelementptr inbounds nuw { ptr, i64 }, ptr %11, i32 0, i32 1
  %19 = load i64, ptr %18, align 8
  invoke void @_ZN5boost4urls10params_ref6assignESt16initializer_listINS0_10param_viewEE(ptr noundef nonnull align 8 dereferenceable(64) %8, ptr %17, i64 %19)
          to label %20 unwind label %21

20:                                               ; preds = %4
  call void @llvm.lifetime.end.p0(i64 64, ptr %8) #9
  ret ptr %14

21:                                               ; preds = %4
  %22 = landingpad { ptr, i32 }
          catch ptr null
  %23 = extractvalue { ptr, i32 } %22, 0
  call void @__clang_call_terminate(ptr %23) #21
  unreachable
}