; Function Attrs: mustprogress nounwind uwtable
define noundef nonnull align 8 dereferenceable(216) ptr @_ZN5boost4urls8url_base10set_paramsESt16initializer_listINS0_10param_viewEENS0_13encoding_optsE(ptr noundef nonnull returned align 8 dereferenceable(216) %0, ptr %1, i64 %2, i24 %3) local_unnamed_addr #6 align 2 personality ptr @__gxx_personality_v0 {
  %5 = alloca %"class.boost::urls::detail::query_ref", align 8
  %6 = alloca %"class.boost::urls::params_ref", align 8
  call void @llvm.lifetime.start.p0(i64 64, ptr nonnull %6) #30
  tail call void @llvm.experimental.noalias.scope.decl(metadata !161)
  call void @llvm.lifetime.start.p0(i64 48, ptr nonnull %5) #30, !noalias !161
  %7 = getelementptr inbounds i8, ptr %0, i64 16
  call void @_ZN5boost4urls6detail9query_refC1ERKNS1_8url_implE(ptr noundef nonnull align 8 dereferenceable(41) %5, ptr noundef nonnull align 8 dereferenceable(171) %7) #30, !noalias !161
  call void @_ZN5boost4urls11params_baseC2ERKNS0_6detail9query_refENS0_13encoding_optsE(ptr noundef nonnull align 8 dereferenceable(64) %6, ptr noundef nonnull align 8 dereferenceable(41) %5, i24 %3) #30
  call void @llvm.lifetime.end.p0(i64 48, ptr nonnull %5) #30, !noalias !161
  %8 = getelementptr inbounds nuw i8, ptr %6, i64 56
  store ptr %0, ptr %8, align 8, !tbaa !157, !alias.scope !161
  invoke void @_ZN5boost4urls10params_ref6assignESt16initializer_listINS0_10param_viewEE(ptr noundef nonnull align 8 dereferenceable(64) %6, ptr %1, i64 %2)
          to label %9 unwind label %10

9:                                                ; preds = %4
  call void @llvm.lifetime.end.p0(i64 64, ptr nonnull %6) #30
  ret ptr %0

10:                                               ; preds = %4
  %11 = landingpad { ptr, i32 }
          catch ptr null
  %12 = extractvalue { ptr, i32 } %11, 0
  call void @__clang_call_terminate(ptr %12) #31
  unreachable
}